target datalayout = "e-m:e-p270:32:32-p271:32:32-p272:64:64-i64:64-i128:128-f80:128-n8:16:32:64-S128"
target triple = "x86_64-unknown-linux-gnu"

%class.approx_set = type { %class.approx_set_tpl }
%class.approx_set_tpl = type { i64 }
%"struct.q::bind" = type <{ %"struct.q::instruction", ptr, i16, [2 x i8], i32, i32, [4 x i8] }>
%"struct.q::instruction" = type { i32, ptr }
%"struct.q::yield" = type <{ %"struct.q::instruction", ptr, ptr, i16, [2 x i8], [0 x i32], [4 x i8] }>
%"struct.q::filter" = type { %"struct.q::instruction", i32, %class.approx_set }
%"struct.q::compare" = type { %"struct.q::instruction", i32, i32 }
%"struct.q::check" = type { %"struct.q::instruction", i32, ptr }

; Function Attrs: mustprogress uwtable
define hidden void @_ZN1q11interpreter23display_instr_input_regERSoPKNS_11instructionE(ptr noundef nonnull align 8 dereferenceable(160) %this, ptr noundef nonnull align 8 dereferenceable(8) %out, ptr noundef %instr) #5 align 2 {
entry:
  %this.addr = alloca ptr, align 8
  %out.addr = alloca ptr, align 8
  %instr.addr = alloca ptr, align 8
  %i = alloca i32, align 4
  store ptr %this, ptr %this.addr, align 8
  store ptr %out, ptr %out.addr, align 8
  store ptr %instr, ptr %instr.addr, align 8
  %this1 = load ptr, ptr %this.addr, align 8
  %0 = load ptr, ptr %instr.addr, align 8
  %m_opcode = getelementptr inbounds %"struct.q::instruction", ptr %0, i32 0, i32 0
  %1 = load i32, ptr %m_opcode, align 8
  switch i32 %1, label %sw.default [
    i32 0, label %sw.bb
    i32 1, label %sw.bb
    i32 2, label %sw.bb
    i32 3, label %sw.bb
    i32 4, label %sw.bb
    i32 5, label %sw.bb
    i32 6, label %sw.bb
    i32 7, label %sw.bb2
    i32 8, label %sw.bb2
    i32 9, label %sw.bb2
    i32 10, label %sw.bb2
    i32 11, label %sw.bb2
    i32 12, label %sw.bb2
    i32 13, label %sw.bb2
    i32 21, label %sw.bb3
    i32 22, label %sw.bb4
    i32 23, label %sw.bb5
    i32 14, label %sw.bb7
    i32 15, label %sw.bb7
    i32 16, label %sw.bb7
    i32 17, label %sw.bb7
    i32 18, label %sw.bb7
    i32 19, label %sw.bb7
    i32 20, label %sw.bb7
  ]

sw.bb:                                            ; preds = %entry, %entry, %entry, %entry, %entry, %entry, %entry
  %2 = load ptr, ptr %out.addr, align 8
  call void @_ZN1q11interpreter11display_regERSoj(ptr noundef nonnull align 8 dereferenceable(160) %this1, ptr noundef nonnull align 8 dereferenceable(8) %2, i32 noundef 0)
  br label %sw.epilog

sw.bb2:                                           ; preds = %entry, %entry, %entry, %entry, %entry, %entry, %entry
  %3 = load ptr, ptr %out.addr, align 8
  %4 = load ptr, ptr %instr.addr, align 8
  %m_ireg = getelementptr inbounds %"struct.q::bind", ptr %4, i32 0, i32 4
  %5 = load i32, ptr %m_ireg, align 4
  call void @_ZN1q11interpreter11display_regERSoj(ptr noundef nonnull align 8 dereferenceable(160) %this1, ptr noundef nonnull align 8 dereferenceable(8) %3, i32 noundef %5)
  br label %sw.epilog

sw.bb3:                                           ; preds = %entry
  %6 = load ptr, ptr %out.addr, align 8
  %7 = load ptr, ptr %instr.addr, align 8
  %m_reg1 = getelementptr inbounds %"struct.q::compare", ptr %7, i32 0, i32 1
  %8 = load i32, ptr %m_reg1, align 8
  call void @_ZN1q11interpreter11display_regERSoj(ptr noundef nonnull align 8 dereferenceable(160) %this1, ptr noundef nonnull align 8 dereferenceable(8) %6, i32 noundef %8)
  %9 = load ptr, ptr %out.addr, align 8
  %10 = load ptr, ptr %instr.addr, align 8
  %m_reg2 = getelementptr inbounds %"struct.q::compare", ptr %10, i32 0, i32 2
  %11 = load i32, ptr %m_reg2, align 4
  call void @_ZN1q11interpreter11display_regERSoj(ptr noundef nonnull align 8 dereferenceable(160) %this1, ptr noundef nonnull align 8 dereferenceable(8) %9, i32 noundef %11)
  br label %sw.epilog

sw.bb4:                                           ; preds = %entry
  %12 = load ptr, ptr %out.addr, align 8
  %13 = load ptr, ptr %instr.addr, align 8
  %m_reg = getelementptr inbounds %"struct.q::check", ptr %13, i32 0, i32 1
  %14 = load i32, ptr %m_reg, align 8
  call void @_ZN1q11interpreter11display_regERSoj(ptr noundef nonnull align 8 dereferenceable(160) %this1, ptr noundef nonnull align 8 dereferenceable(8) %12, i32 noundef %14)
  br label %sw.epilog

sw.bb5:                                           ; preds = %entry
  %15 = load ptr, ptr %out.addr, align 8
  %16 = load ptr, ptr %instr.addr, align 8
  %m_reg6 = getelementptr inbounds %"struct.q::filter", ptr %16, i32 0, i32 1
  %17 = load i32, ptr %m_reg6, align 8
  call void @_ZN1q11interpreter11display_regERSoj(ptr noundef nonnull align 8 dereferenceable(160) %this1, ptr noundef nonnull align 8 dereferenceable(8) %15, i32 noundef %17)
  br label %sw.epilog

sw.bb7:                                           ; preds = %entry, %entry, %entry, %entry, %entry, %entry, %entry
  store i32 0, ptr %i, align 4
  br label %for.cond

for.cond:                                         ; preds = %for.inc, %sw.bb7
  %18 = load i32, ptr %i, align 4
  %19 = load ptr, ptr %instr.addr, align 8
  %m_num_bindings = getelementptr inbounds %"struct.q::yield", ptr %19, i32 0, i32 3
  %20 = load i16, ptr %m_num_bindings, align 8
  %conv = zext i16 %20 to i32
  %cmp = icmp ult i32 %18, %conv
  br i1 %cmp, label %for.body, label %for.end

for.body:                                         ; preds = %for.cond
  %21 = load ptr, ptr %out.addr, align 8
  %22 = load ptr, ptr %instr.addr, align 8
  %m_bindings = getelementptr inbounds %"struct.q::yield", ptr %22, i32 0, i32 5
  %23 = load i32, ptr %i, align 4
  %idxprom = zext i32 %23 to i64
  %arrayidx = getelementptr inbounds [0 x i32], ptr %m_bindings, i64 0, i64 %idxprom
  %24 = load i32, ptr %arrayidx, align 4
  call void @_ZN1q11interpreter11display_regERSoj(ptr noundef nonnull align 8 dereferenceable(160) %this1, ptr noundef nonnull align 8 dereferenceable(8) %21, i32 noundef %24)
  br label %for.inc

for.inc:                                          ; preds = %for.body
  %25 = load i32, ptr %i, align 4
  %inc = add i32 %25, 1
  store i32 %inc, ptr %i, align 4
  br label %for.cond, !llvm.loop !13

for.end:                                          ; preds = %for.cond
  br label %sw.epilog

sw.default:                                       ; preds = %entry
  br label %sw.epilog

sw.epilog:                                        ; preds = %sw.default, %for.end, %sw.bb5, %sw.bb4, %sw.bb3, %sw.bb2, %sw.bb
  ret void
}