; Function Attrs: mustprogress uwtable
define hidden void @_ZN1q11interpreter23display_instr_input_regERSoPKNS_11instructionE(ptr nocapture noundef nonnull readonly align 8 dereferenceable(160) %this, ptr noundef nonnull align 8 dereferenceable(8) %out, ptr nocapture noundef readonly %instr) local_unnamed_addr #4 align 2 {
entry:
  %0 = load i32, ptr %instr, align 8
  switch i32 %0, label %sw.epilog [
    i32 0, label %sw.epilog.sink.split
    i32 1, label %sw.epilog.sink.split
    i32 2, label %sw.epilog.sink.split
    i32 3, label %sw.epilog.sink.split
    i32 4, label %sw.epilog.sink.split
    i32 5, label %sw.epilog.sink.split
    i32 6, label %sw.epilog.sink.split
    i32 7, label %sw.bb2
    i32 8, label %sw.bb2
    i32 9, label %sw.bb2
    i32 10, label %sw.bb2
    i32 11, label %sw.bb2
    i32 12, label %sw.bb2
    i32 13, label %sw.bb2
    i32 21, label %sw.bb3
    i32 22, label %sw.bb4
    i32 23, label %sw.bb5
    i32 14, label %sw.bb7
    i32 15, label %sw.bb7
    i32 16, label %sw.bb7
    i32 17, label %sw.bb7
    i32 18, label %sw.bb7
    i32 19, label %sw.bb7
    i32 20, label %sw.bb7
  ]

sw.bb2:                                           ; preds = %entry, %entry, %entry, %entry, %entry, %entry, %entry
  %m_ireg = getelementptr inbounds i8, ptr %instr, i64 28
  %1 = load i32, ptr %m_ireg, align 4
  br label %sw.epilog.sink.split

sw.bb3:                                           ; preds = %entry
  %m_reg1 = getelementptr inbounds i8, ptr %instr, i64 16
  %2 = load i32, ptr %m_reg1, align 8
  tail call void @_ZN1q11interpreter11display_regERSoj(ptr noundef nonnull align 8 dereferenceable(160) %this, ptr noundef nonnull align 8 dereferenceable(8) %out, i32 noundef %2)
  %m_reg2 = getelementptr inbounds i8, ptr %instr, i64 20
  %3 = load i32, ptr %m_reg2, align 4
  br label %sw.epilog.sink.split

sw.bb4:                                           ; preds = %entry
  %m_reg = getelementptr inbounds i8, ptr %instr, i64 16
  %4 = load i32, ptr %m_reg, align 8
  br label %sw.epilog.sink.split

sw.bb5:                                           ; preds = %entry
  %m_reg6 = getelementptr inbounds i8, ptr %instr, i64 16
  %5 = load i32, ptr %m_reg6, align 8
  br label %sw.epilog.sink.split

sw.bb7:                                           ; preds = %entry, %entry, %entry, %entry, %entry, %entry, %entry
  %m_num_bindings = getelementptr inbounds i8, ptr %instr, i64 32
  %6 = load i16, ptr %m_num_bindings, align 8
  %cmp17.not = icmp eq i16 %6, 0
  br i1 %cmp17.not, label %sw.epilog, label %for.body.lr.ph

for.body.lr.ph:                                   ; preds = %sw.bb7
  %m_bindings = getelementptr inbounds i8, ptr %instr, i64 36
  br label %for.body

for.body:                                         ; preds = %for.body.lr.ph, %for.body
  %indvars.iv = phi i64 [ 0, %for.body.lr.ph ], [ %indvars.iv.next, %for.body ]
  %arrayidx = getelementptr inbounds [0 x i32], ptr %m_bindings, i64 0, i64 %indvars.iv
  %7 = load i32, ptr %arrayidx, align 4
  tail call void @_ZN1q11interpreter11display_regERSoj(ptr noundef nonnull align 8 dereferenceable(160) %this, ptr noundef nonnull align 8 dereferenceable(8) %out, i32 noundef %7)
  %indvars.iv.next = add nuw nsw i64 %indvars.iv, 1
  %8 = load i16, ptr %m_num_bindings, align 8
  %9 = zext i16 %8 to i64
  %cmp = icmp ult i64 %indvars.iv.next, %9
  br i1 %cmp, label %for.body, label %sw.epilog, !llvm.loop !13

sw.epilog.sink.split:                             ; preds = %entry, %entry, %entry, %entry, %entry, %entry, %entry, %sw.bb2, %sw.bb3, %sw.bb4, %sw.bb5
  %.sink = phi i32 [ %5, %sw.bb5 ], [ %4, %sw.bb4 ], [ %3, %sw.bb3 ], [ %1, %sw.bb2 ], [ 0, %entry ], [ 0, %entry ], [ 0, %entry ], [ 0, %entry ], [ 0, %entry ], [ 0, %entry ], [ 0, %entry ]
  tail call void @_ZN1q11interpreter11display_regERSoj(ptr noundef nonnull align 8 dereferenceable(160) %this, ptr noundef nonnull align 8 dereferenceable(8) %out, i32 noundef %.sink)
  br label %sw.epilog

sw.epilog:                                        ; preds = %for.body, %sw.epilog.sink.split, %sw.bb7, %entry
  ret void
}